(lp0
(lp1
(lp2
VFSC-A
p3
aI2048
aI4096
aa(lp4
VFSC-H
p5
aI2048
aI2560
aaa(lp6
(lp7
(lp8
(lp9
VSSC-H
p10
aI102
aI921
aa(lp11
VCD45
p12
aI2048
aI3891
aaa(lp13
(lp14
(lp15
(lp16
g3
aI921
aI2150
aa(lp17
VSSC-A
p18
aI102
aI921
aaa(lp19
(lp20
(lp21
(lp22
VCD5
p23
aI1638
aI3891
aa(lp24
VCD19
p25
aI2150
aI3891
aaa(lp26
(lp27
(lp28
(lp29
VCD10
p30
aI0
aI1228
aa(lp31
VCD79b
p32
aI0
aI1843
aaa(lp33
aaaa(lp34
(lp35
(lp36
VCD3
p37
aI0
aI2048
aa(lp38
g25
aI2048
aI4096
aaa(lp39
aa(lp40
(lp41
(lp42
g23
aI2048
aI3891
aa(lp43
g37
aI2457
aI3891
aaa(lp44
aaaaaaa.